target datalayout = "e-m:e-p270:32:32-p271:32:32-p272:64:64-i64:64-i128:128-f80:128-n8:16:32:64-S128"
target triple = "x86_64-pc-linux-gnu"

%struct.expert_field = type { i32, i32 }
%struct.MessageHeader = type { [4 x i8], %struct.Version, i8, i8, i32, i32, i32, ptr }
%struct.Version = type { i8, i8 }

@hf_Tango_Device_4_read_attributes_4_return_loop = internal global i32 0, align 4
@hf_Tango_Device_4_read_attributes_4_names_loop = internal global i32 0, align 4
@hf_Tango_Device_4_read_attributes_4_names = internal global i32 0, align 4
@hf_Tango_Device_4_read_attributes_4_source = internal global i32 0, align 4
@ei_tango_unknown_giop_msg = internal global %struct.expert_field zeroinitializer, align 4
@ei_tango_unknown_exception = internal global %struct.expert_field zeroinitializer, align 4
@ett_giop_struct = internal global i32 0, align 4
@ett_giop_sequence = internal global i32 0, align 4
@ett_giop_union = internal global i32 0, align 4
@boundary = internal global i32 12, align 4
@.str.770 = private unnamed_addr constant [22 x i8] c"union Tango_ClntIdent\00", align 1
@.str.771 = private unnamed_addr constant [21 x i8] c"Unknown exception %d\00", align 1
@.str.772 = private unnamed_addr constant [24 x i8] c"Unknown GIOP message %d\00", align 1
@.str.796 = private unnamed_addr constant [30 x i8] c"struct Tango_AttributeValue_4\00", align 1
@.str.842 = private unnamed_addr constant [48 x i8] c"sequence Tango_Device_4_read_attributes_4_names\00", align 1
@.str.843 = private unnamed_addr constant [49 x i8] c"sequence Tango_Device_4_read_attributes_4_return\00", align 1

; Function Attrs: null_pointer_is_valid sspstrong uwtable
define internal void @decode_Tango_Device_4_read_attributes_4(ptr noundef %0, ptr noundef %1, ptr noundef %2, ptr noundef %3, ptr noundef %4, ptr noundef %5, ptr noundef %6, i1 noundef zeroext %7) #0 {
  %9 = alloca ptr, align 8
  %10 = alloca ptr, align 8
  %11 = alloca ptr, align 8
  %12 = alloca ptr, align 8
  %13 = alloca ptr, align 8
  %14 = alloca ptr, align 8
  %15 = alloca ptr, align 8
  %16 = alloca i8, align 1
  %17 = alloca i32, align 4
  %18 = alloca i32, align 4
  %19 = alloca i32, align 4
  %20 = alloca i32, align 4
  %21 = alloca i32, align 4
  %22 = alloca ptr, align 8
  %23 = alloca ptr, align 8
  %24 = alloca ptr, align 8
  %25 = alloca ptr, align 8
  store ptr %0, ptr %9, align 8
  store ptr %1, ptr %10, align 8
  store ptr %2, ptr %11, align 8
  store ptr %3, ptr %12, align 8
  store ptr %4, ptr %13, align 8
  store ptr %5, ptr %14, align 8
  store ptr %6, ptr %15, align 8
  %26 = zext i1 %7 to i8
  store i8 %26, ptr %16, align 1
  call void @llvm.lifetime.start.p0(i64 4, ptr %17) #6
  call void @llvm.lifetime.start.p0(i64 4, ptr %18) #6
  call void @llvm.lifetime.start.p0(i64 4, ptr %19) #6
  call void @llvm.lifetime.start.p0(i64 4, ptr %20) #6
  call void @llvm.lifetime.start.p0(i64 4, ptr %21) #6
  %27 = load ptr, ptr %14, align 8
  %28 = getelementptr inbounds nuw %struct.MessageHeader, ptr %27, i32 0, i32 3
  %29 = load i8, ptr %28, align 1
  %30 = zext i8 %29 to i32
  switch i32 %30, label %157 [
    i32 0, label %31
    i32 1, label %98
  ]

31:                                               ; preds = %8
  %32 = load ptr, ptr %9, align 8
  %33 = load ptr, ptr %13, align 8
  %34 = load i8, ptr %16, align 1, !range !6, !noundef !7
  %35 = trunc i8 %34 to i1
  %36 = load i32, ptr @boundary, align 4
  %37 = call i32 @get_CDR_ulong(ptr noundef %32, ptr noundef %33, i1 noundef zeroext %35, i32 noundef %36)
  store i32 %37, ptr %17, align 4
  %38 = load ptr, ptr %11, align 8
  %39 = load i32, ptr @hf_Tango_Device_4_read_attributes_4_names_loop, align 4
  %40 = load ptr, ptr %9, align 8
  %41 = load ptr, ptr %13, align 8
  %42 = load i32, ptr %41, align 4
  %43 = sub i32 %42, 4
  %44 = load i32, ptr %17, align 4
  %45 = call ptr @proto_tree_add_uint(ptr noundef %38, i32 noundef %39, ptr noundef %40, i32 noundef %43, i32 noundef 4, i32 noundef %44)
  call void @llvm.lifetime.start.p0(i64 8, ptr %22) #6
  %46 = load ptr, ptr %11, align 8
  store ptr %46, ptr %22, align 8
  %47 = load ptr, ptr %11, align 8
  %48 = load ptr, ptr %9, align 8
  %49 = load ptr, ptr %13, align 8
  %50 = load i32, ptr %49, align 4
  %51 = load i32, ptr @ett_giop_sequence, align 4
  %52 = call ptr @proto_tree_add_subtree(ptr noundef %47, ptr noundef %48, i32 noundef %50, i32 noundef -1, i32 noundef %51, ptr noundef null, ptr noundef @.str.842)
  store ptr %52, ptr %11, align 8
  store i32 0, ptr %18, align 4
  br label %53

53:                                               ; preds = %65, %31
  %54 = load i32, ptr %18, align 4
  %55 = load i32, ptr %17, align 4
  %56 = icmp ult i32 %54, %55
  br i1 %56, label %57, label %68

57:                                               ; preds = %53
  %58 = load ptr, ptr %11, align 8
  %59 = load ptr, ptr %9, align 8
  %60 = load ptr, ptr %13, align 8
  %61 = load i8, ptr %16, align 1, !range !6, !noundef !7
  %62 = trunc i8 %61 to i1
  %63 = load i32, ptr @boundary, align 4
  %64 = load i32, ptr @hf_Tango_Device_4_read_attributes_4_names, align 4
  call void @giop_add_CDR_string(ptr noundef %58, ptr noundef %59, ptr noundef %60, i1 noundef zeroext %62, i32 noundef %63, i32 noundef %64)
  br label %65

65:                                               ; preds = %57
  %66 = load i32, ptr %18, align 4
  %67 = add i32 %66, 1
  store i32 %67, ptr %18, align 4
  br label %53, !llvm.loop !24

68:                                               ; preds = %53
  %69 = load ptr, ptr %22, align 8
  store ptr %69, ptr %11, align 8
  call void @llvm.lifetime.end.p0(i64 8, ptr %22) #6
  %70 = load ptr, ptr %9, align 8
  %71 = load ptr, ptr %13, align 8
  %72 = load i8, ptr %16, align 1, !range !6, !noundef !7
  %73 = trunc i8 %72 to i1
  %74 = load i32, ptr @boundary, align 4
  %75 = call i32 @get_CDR_enum(ptr noundef %70, ptr noundef %71, i1 noundef zeroext %73, i32 noundef %74)
  store i32 %75, ptr %19, align 4
  %76 = load ptr, ptr %11, align 8
  %77 = load i32, ptr @hf_Tango_Device_4_read_attributes_4_source, align 4
  %78 = load ptr, ptr %9, align 8
  %79 = load ptr, ptr %13, align 8
  %80 = load i32, ptr %79, align 4
  %81 = sub i32 %80, 4
  %82 = load i32, ptr %19, align 4
  %83 = call ptr @proto_tree_add_uint(ptr noundef %76, i32 noundef %77, ptr noundef %78, i32 noundef %81, i32 noundef 4, i32 noundef %82)
  call void @llvm.lifetime.start.p0(i64 8, ptr %23) #6
  %84 = load ptr, ptr %11, align 8
  %85 = load ptr, ptr %9, align 8
  %86 = load ptr, ptr %13, align 8
  %87 = load i32, ptr %86, align 4
  %88 = load i32, ptr @ett_giop_union, align 4
  %89 = call ptr @proto_tree_add_subtree(ptr noundef %84, ptr noundef %85, i32 noundef %87, i32 noundef -1, i32 noundef %88, ptr noundef null, ptr noundef @.str.770)
  store ptr %89, ptr %23, align 8
  %90 = load ptr, ptr %9, align 8
  %91 = load ptr, ptr %10, align 8
  %92 = load ptr, ptr %23, align 8
  %93 = load ptr, ptr %13, align 8
  %94 = load ptr, ptr %14, align 8
  %95 = load ptr, ptr %15, align 8
  %96 = load i8, ptr %16, align 1, !range !6, !noundef !7
  %97 = trunc i8 %96 to i1
  call void @decode_Tango_ClntIdent_un(ptr noundef %90, ptr noundef %91, ptr noundef %92, ptr noundef %93, ptr noundef %94, ptr noundef %95, i1 noundef zeroext %97)
  call void @llvm.lifetime.end.p0(i64 8, ptr %23) #6
  br label %165

98:                                               ; preds = %8
  %99 = load ptr, ptr %14, align 8
  %100 = getelementptr inbounds nuw %struct.MessageHeader, ptr %99, i32 0, i32 6
  %101 = load i32, ptr %100, align 8
  switch i32 %101, label %149 [
    i32 0, label %102
    i32 1, label %156
  ]

102:                                              ; preds = %98
  %103 = load ptr, ptr %9, align 8
  %104 = load ptr, ptr %13, align 8
  %105 = load i8, ptr %16, align 1, !range !6, !noundef !7
  %106 = trunc i8 %105 to i1
  %107 = load i32, ptr @boundary, align 4
  %108 = call i32 @get_CDR_ulong(ptr noundef %103, ptr noundef %104, i1 noundef zeroext %106, i32 noundef %107)
  store i32 %108, ptr %20, align 4
  %109 = load ptr, ptr %11, align 8
  %110 = load i32, ptr @hf_Tango_Device_4_read_attributes_4_return_loop, align 4
  %111 = load ptr, ptr %9, align 8
  %112 = load ptr, ptr %13, align 8
  %113 = load i32, ptr %112, align 4
  %114 = sub i32 %113, 4
  %115 = load i32, ptr %20, align 4
  %116 = call ptr @proto_tree_add_uint(ptr noundef %109, i32 noundef %110, ptr noundef %111, i32 noundef %114, i32 noundef 4, i32 noundef %115)
  call void @llvm.lifetime.start.p0(i64 8, ptr %24) #6
  %117 = load ptr, ptr %11, align 8
  store ptr %117, ptr %24, align 8
  %118 = load ptr, ptr %11, align 8
  %119 = load ptr, ptr %9, align 8
  %120 = load ptr, ptr %13, align 8
  %121 = load i32, ptr %120, align 4
  %122 = load i32, ptr @ett_giop_sequence, align 4
  %123 = call ptr @proto_tree_add_subtree(ptr noundef %118, ptr noundef %119, i32 noundef %121, i32 noundef -1, i32 noundef %122, ptr noundef null, ptr noundef @.str.843)
  store ptr %123, ptr %11, align 8
  store i32 0, ptr %21, align 4
  br label %124

124:                                              ; preds = %144, %102
  %125 = load i32, ptr %21, align 4
  %126 = load i32, ptr %20, align 4
  %127 = icmp ult i32 %125, %126
  br i1 %127, label %128, label %147

128:                                              ; preds = %124
  call void @llvm.lifetime.start.p0(i64 8, ptr %25) #6
  %129 = load ptr, ptr %11, align 8
  %130 = load ptr, ptr %9, align 8
  %131 = load ptr, ptr %13, align 8
  %132 = load i32, ptr %131, align 4
  %133 = load i32, ptr @ett_giop_struct, align 4
  %134 = call ptr @proto_tree_add_subtree(ptr noundef %129, ptr noundef %130, i32 noundef %132, i32 noundef -1, i32 noundef %133, ptr noundef null, ptr noundef @.str.796)
  store ptr %134, ptr %25, align 8
  %135 = load ptr, ptr %9, align 8
  %136 = load ptr, ptr %10, align 8
  %137 = load ptr, ptr %25, align 8
  %138 = load ptr, ptr %12, align 8
  %139 = load ptr, ptr %13, align 8
  %140 = load ptr, ptr %14, align 8
  %141 = load ptr, ptr %15, align 8
  %142 = load i8, ptr %16, align 1, !range !6, !noundef !7
  %143 = trunc i8 %142 to i1
  call void @decode_Tango_AttributeValue_4_st(ptr noundef %135, ptr noundef %136, ptr noundef %137, ptr noundef %138, ptr noundef %139, ptr noundef %140, ptr noundef %141, i1 noundef zeroext %143)
  call void @llvm.lifetime.end.p0(i64 8, ptr %25) #6
  br label %144

144:                                              ; preds = %128
  %145 = load i32, ptr %21, align 4
  %146 = add i32 %145, 1
  store i32 %146, ptr %21, align 4
  br label %124, !llvm.loop !25

147:                                              ; preds = %124
  %148 = load ptr, ptr %24, align 8
  store ptr %148, ptr %11, align 8
  call void @llvm.lifetime.end.p0(i64 8, ptr %24) #6
  br label %156

149:                                              ; preds = %98
  %150 = load ptr, ptr %10, align 8
  %151 = load ptr, ptr %12, align 8
  %152 = load ptr, ptr %14, align 8
  %153 = getelementptr inbounds nuw %struct.MessageHeader, ptr %152, i32 0, i32 6
  %154 = load i32, ptr %153, align 8
  %155 = call ptr (ptr, ptr, ptr, ptr, ...) @expert_add_info_format(ptr noundef %150, ptr noundef %151, ptr noundef @ei_tango_unknown_exception, ptr noundef @.str.771, i32 noundef %154)
  br label %156

156:                                              ; preds = %149, %98, %147
  br label %165

157:                                              ; preds = %8
  %158 = load ptr, ptr %10, align 8
  %159 = load ptr, ptr %12, align 8
  %160 = load ptr, ptr %14, align 8
  %161 = getelementptr inbounds nuw %struct.MessageHeader, ptr %160, i32 0, i32 3
  %162 = load i8, ptr %161, align 1
  %163 = zext i8 %162 to i32
  %164 = call ptr (ptr, ptr, ptr, ptr, ...) @expert_add_info_format(ptr noundef %158, ptr noundef %159, ptr noundef @ei_tango_unknown_giop_msg, ptr noundef @.str.772, i32 noundef %163)
  br label %165

165:                                              ; preds = %157, %156, %68
  call void @llvm.lifetime.end.p0(i64 4, ptr %21) #6
  call void @llvm.lifetime.end.p0(i64 4, ptr %20) #6
  call void @llvm.lifetime.end.p0(i64 4, ptr %19) #6
  call void @llvm.lifetime.end.p0(i64 4, ptr %18) #6
  call void @llvm.lifetime.end.p0(i64 4, ptr %17) #6
  ret void
}