; Function Attrs: null_pointer_is_valid sspstrong uwtable
define internal fastcc void @decode_Tango_Device_4_read_attributes_4(ptr noundef %0, ptr noundef %1, ptr noundef %2, ptr noundef %3, ptr noundef %4, ptr noundef readonly captures(none) %5, i1 noundef zeroext %6) unnamed_addr #0 {
  %8 = getelementptr inbounds nuw i8, ptr %5, i64 7
  %9 = load i8, ptr %8, align 1
  switch i8 %9, label %47 [
    i8 0, label %10
    i8 1, label %29
  ]

10:                                               ; preds = %7
  %11 = tail call i32 @get_CDR_ulong(ptr noundef %0, ptr noundef %4, i1 noundef zeroext %6, i32 noundef 12)
  %12 = load i32, ptr @hf_Tango_Device_4_read_attributes_4_names_loop, align 4
  %13 = load i32, ptr %4, align 4
  %14 = add i32 %13, -4
  %15 = tail call ptr @proto_tree_add_uint(ptr noundef %2, i32 noundef %12, ptr noundef %0, i32 noundef %14, i32 noundef 4, i32 noundef %11)
  %16 = load i32, ptr %4, align 4
  %17 = load i32, ptr @ett_giop_sequence, align 4
  %18 = tail call ptr @proto_tree_add_subtree(ptr noundef %2, ptr noundef %0, i32 noundef %16, i32 noundef -1, i32 noundef %17, ptr noundef null, ptr noundef nonnull @.str.842)
  %.not4 = icmp eq i32 %11, 0
  br i1 %.not4, label %._crit_edge, label %.lr.ph3

.lr.ph3:                                          ; preds = %10, %.lr.ph3
  %.02 = phi i32 [ %20, %.lr.ph3 ], [ 0, %10 ]
  %19 = load i32, ptr @hf_Tango_Device_4_read_attributes_4_names, align 4
  tail call void @giop_add_CDR_string(ptr noundef %18, ptr noundef %0, ptr noundef %4, i1 noundef zeroext %6, i32 noundef 12, i32 noundef %19)
  %20 = add nuw i32 %.02, 1
  %exitcond5.not = icmp eq i32 %20, %11
  br i1 %exitcond5.not, label %._crit_edge, label %.lr.ph3, !llvm.loop !35

._crit_edge:                                      ; preds = %.lr.ph3, %10
  %21 = tail call i32 @get_CDR_enum(ptr noundef %0, ptr noundef %4, i1 noundef zeroext %6, i32 noundef 12)
  %22 = load i32, ptr @hf_Tango_Device_4_read_attributes_4_source, align 4
  %23 = load i32, ptr %4, align 4
  %24 = add i32 %23, -4
  %25 = tail call ptr @proto_tree_add_uint(ptr noundef %2, i32 noundef %22, ptr noundef %0, i32 noundef %24, i32 noundef 4, i32 noundef %21)
  %26 = load i32, ptr %4, align 4
  %27 = load i32, ptr @ett_giop_union, align 4
  %28 = tail call ptr @proto_tree_add_subtree(ptr noundef %2, ptr noundef %0, i32 noundef %26, i32 noundef -1, i32 noundef %27, ptr noundef null, ptr noundef nonnull @.str.770)
  tail call fastcc void @decode_Tango_ClntIdent_un(ptr noundef %0, ptr noundef %28, ptr noundef %4, i1 noundef zeroext %6)
  br label %.loopexit

29:                                               ; preds = %7
  %30 = getelementptr inbounds nuw i8, ptr %5, i64 16
  %31 = load i32, ptr %30, align 8
  switch i32 %31, label %45 [
    i32 0, label %32
    i32 1, label %.loopexit
  ]

32:                                               ; preds = %29
  %33 = tail call i32 @get_CDR_ulong(ptr noundef %0, ptr noundef %4, i1 noundef zeroext %6, i32 noundef 12)
  %34 = load i32, ptr @hf_Tango_Device_4_read_attributes_4_return_loop, align 4
  %35 = load i32, ptr %4, align 4
  %36 = add i32 %35, -4
  %37 = tail call ptr @proto_tree_add_uint(ptr noundef %2, i32 noundef %34, ptr noundef %0, i32 noundef %36, i32 noundef 4, i32 noundef %33)
  %38 = load i32, ptr %4, align 4
  %39 = load i32, ptr @ett_giop_sequence, align 4
  %40 = tail call ptr @proto_tree_add_subtree(ptr noundef %2, ptr noundef %0, i32 noundef %38, i32 noundef -1, i32 noundef %39, ptr noundef null, ptr noundef nonnull @.str.843)
  %.not = icmp eq i32 %33, 0
  br i1 %.not, label %.loopexit, label %.lr.ph

.lr.ph:                                           ; preds = %32, %.lr.ph
  %.0691 = phi i32 [ %44, %.lr.ph ], [ 0, %32 ]
  %41 = load i32, ptr %4, align 4
  %42 = load i32, ptr @ett_giop_struct, align 4
  %43 = tail call ptr @proto_tree_add_subtree(ptr noundef %40, ptr noundef %0, i32 noundef %41, i32 noundef -1, i32 noundef %42, ptr noundef null, ptr noundef nonnull @.str.796)
  tail call fastcc void @decode_Tango_AttributeValue_4_st(ptr noundef %0, ptr noundef %1, ptr noundef %43, ptr noundef %4, i1 noundef zeroext %6)
  %44 = add nuw i32 %.0691, 1
  %exitcond.not = icmp eq i32 %44, %33
  br i1 %exitcond.not, label %.loopexit, label %.lr.ph, !llvm.loop !36

45:                                               ; preds = %29
  %46 = tail call ptr (ptr, ptr, ptr, ptr, ...) @expert_add_info_format(ptr noundef %1, ptr noundef %3, ptr noundef nonnull @ei_tango_unknown_exception, ptr noundef nonnull @.str.771, i32 noundef %31)
  br label %.loopexit

47:                                               ; preds = %7
  %48 = zext i8 %9 to i32
  %49 = tail call ptr (ptr, ptr, ptr, ptr, ...) @expert_add_info_format(ptr noundef %1, ptr noundef %3, ptr noundef nonnull @ei_tango_unknown_giop_msg, ptr noundef nonnull @.str.772, i32 noundef %48)
  br label %.loopexit

.loopexit:                                        ; preds = %.lr.ph, %32, %29, %45, %47, %._crit_edge
  ret void
}